; Function Attrs: nounwind uwtable
define internal fastcc i32 @session_handle_frame_size_error(ptr noundef %0) unnamed_addr #1 {
  %2 = getelementptr inbounds nuw i8, ptr %0, i64 2845
  %3 = load i8, ptr %2, align 1, !tbaa !4
  %4 = and i8 %3, 1
  %.not.i.i = icmp eq i8 %4, 0
  br i1 %.not.i.i, label %5, label %nghttp2_session_terminate_session.exit

5:                                                ; preds = %1
  %6 = getelementptr inbounds nuw i8, ptr %0, i64 2724
  %7 = load i32, ptr %6, align 4, !tbaa !38
  %8 = getelementptr inbounds nuw i8, ptr %0, i64 952
  store i32 15, ptr %8, align 8, !tbaa !39
  %9 = tail call i32 @nghttp2_session_add_goaway(ptr noundef nonnull %0, i32 noundef %7, i32 noundef 6, ptr noundef null, i64 noundef 0, i8 noundef zeroext 1)
  %.not17.i.i = icmp eq i32 %9, 0
  br i1 %.not17.i.i, label %10, label %nghttp2_session_terminate_session.exit

10:                                               ; preds = %5
  %11 = load i8, ptr %2, align 1, !tbaa !4
  %12 = or i8 %11, 1
  store i8 %12, ptr %2, align 1, !tbaa !4
  br label %nghttp2_session_terminate_session.exit

nghttp2_session_terminate_session.exit:           ; preds = %1, %5, %10
  %.014.i.i = phi i32 [ 0, %10 ], [ 0, %1 ], [ %9, %5 ]
  ret i32 %.014.i.i
}